; Function Attrs: nounwind uwtable
define ptr @dtgtk_gradient_slider_multivalue_new_with_color(ptr noundef readonly byval(%struct._GdkRGBA) align 8 captures(none) %0, ptr noundef readonly byval(%struct._GdkRGBA) align 8 captures(none) %1, i32 noundef %2) local_unnamed_addr #0 {
  %4 = load atomic i64, ptr @_gradient_slider_get_type.static_g_define_type_id seq_cst, align 8
  %.not.i = icmp eq i64 %4, 0
  br i1 %.not.i, label %5, label %9

5:                                                ; preds = %3
  %6 = tail call i32 @g_once_init_enter(ptr noundef nonnull @_gradient_slider_get_type.static_g_define_type_id) #14
  %.not4.i = icmp eq i32 %6, 0
  br i1 %.not4.i, label %9, label %7

7:                                                ; preds = %5
  %8 = tail call fastcc i64 @_gradient_slider_get_type_once()
  tail call void @g_once_init_leave(ptr noundef nonnull @_gradient_slider_get_type.static_g_define_type_id, i64 noundef %8) #14
  br label %9

9:                                                ; preds = %7, %5, %3
  %10 = load i64, ptr @_gradient_slider_get_type.static_g_define_type_id, align 8, !tbaa !6
  %11 = tail call ptr (i64, ptr, ...) @g_object_new(i64 noundef %10, ptr noundef null) #14
  %12 = getelementptr inbounds nuw i8, ptr %11, i64 56
  store i32 %2, ptr %12, align 8, !tbaa !16
  %13 = getelementptr inbounds nuw i8, ptr %11, i64 328
  %14 = getelementptr inbounds nuw i8, ptr %11, i64 324
  store i32 0, ptr %14, align 4, !tbaa !28
  %15 = getelementptr inbounds nuw i8, ptr %11, i64 316
  store i32 0, ptr %15, align 4, !tbaa !29
  %16 = getelementptr inbounds nuw i8, ptr %11, i64 312
  store i32 0, ptr %16, align 8, !tbaa !30
  %17 = getelementptr inbounds nuw i8, ptr %11, i64 336
  store i32 0, ptr %17, align 8, !tbaa !31
  %18 = icmp ne i32 %2, 1
  %19 = sext i1 %18 to i32
  %20 = getelementptr inbounds nuw i8, ptr %11, i64 48
  store i32 %19, ptr %20, align 8, !tbaa !32
  %21 = getelementptr inbounds nuw i8, ptr %11, i64 52
  store i32 -1, ptr %21, align 4, !tbaa !33
  %22 = getelementptr inbounds nuw i8, ptr %11, i64 344
  store ptr @_default_linear_scale_callback, ptr %22, align 8, !tbaa !34
  %23 = getelementptr inbounds nuw i8, ptr %11, i64 320
  store i32 0, ptr %23, align 8, !tbaa !35
  store i32 0, ptr %13, align 8, !tbaa !36
  %24 = getelementptr inbounds nuw i8, ptr %11, i64 280
  %25 = getelementptr inbounds nuw i8, ptr %11, i64 296
  store double 0x7FF8000000000000, ptr %25, align 8, !tbaa !37
  %26 = getelementptr inbounds nuw i8, ptr %11, i64 288
  store double 0x7FF8000000000000, ptr %26, align 8, !tbaa !37
  store double 0x7FF8000000000000, ptr %24, align 8, !tbaa !37
  %27 = getelementptr inbounds nuw i8, ptr %11, i64 264
  store double 1.000000e-02, ptr %27, align 8, !tbaa !38
  %28 = getelementptr inbounds nuw i8, ptr %11, i64 308
  store i32 6, ptr %28, align 4, !tbaa !39
  %29 = getelementptr inbounds nuw i8, ptr %11, i64 304
  store i32 6, ptr %29, align 8, !tbaa !40
  %30 = getelementptr inbounds nuw i8, ptr %11, i64 332
  store i32 1, ptr %30, align 4, !tbaa !41
  %31 = getelementptr inbounds nuw i8, ptr %11, i64 40
  store ptr null, ptr %31, align 8, !tbaa !42
  %32 = getelementptr inbounds nuw i8, ptr %11, i64 272
  store double 0.000000e+00, ptr %32, align 8, !tbaa !43
  %33 = icmp sgt i32 %2, 0
  br i1 %33, label %.lr.ph.i, label %_gradient_slider_set_defaults.exit

.lr.ph.i:                                         ; preds = %9
  %34 = getelementptr inbounds nuw i8, ptr %11, i64 64
  %35 = getelementptr inbounds nuw i8, ptr %11, i64 144
  %36 = getelementptr inbounds nuw i8, ptr %11, i64 224
  %wide.trip.count.i = zext nneg i32 %2 to i64
  br label %37

37:                                               ; preds = %37, %.lr.ph.i
  %indvars.iv.i = phi i64 [ 0, %.lr.ph.i ], [ %indvars.iv.next.i, %37 ]
  %38 = getelementptr inbounds nuw [10 x double], ptr %34, i64 0, i64 %indvars.iv.i
  store double 0.000000e+00, ptr %38, align 8, !tbaa !37
  %39 = getelementptr inbounds nuw [10 x double], ptr %35, i64 0, i64 %indvars.iv.i
  store double 0.000000e+00, ptr %39, align 8, !tbaa !37
  %40 = getelementptr inbounds nuw [10 x i32], ptr %36, i64 0, i64 %indvars.iv.i
  store i32 11, ptr %40, align 4, !tbaa !44
  %indvars.iv.next.i = add nuw nsw i64 %indvars.iv.i, 1
  %exitcond.not.i = icmp eq i64 %indvars.iv.next.i, %wide.trip.count.i
  br i1 %exitcond.not.i, label %_gradient_slider_set_defaults.exit, label %37

_gradient_slider_set_defaults.exit:               ; preds = %37, %9
  %41 = tail call noalias dereferenceable_or_null(40) ptr @g_malloc(i64 noundef 40) #16
  store double 0.000000e+00, ptr %41, align 8, !tbaa !12
  %42 = getelementptr inbounds nuw i8, ptr %41, i64 8
  call void @llvm.memcpy.p0.p0.i64(ptr noundef nonnull align 8 dereferenceable(32) %42, ptr noundef nonnull align 8 dereferenceable(32) %0, i64 32, i1 false)
  %43 = load ptr, ptr %31, align 8, !tbaa !42
  %44 = tail call ptr @g_list_append(ptr noundef %43, ptr noundef nonnull %41) #14
  store ptr %44, ptr %31, align 8, !tbaa !42
  %45 = tail call noalias dereferenceable_or_null(40) ptr @g_malloc(i64 noundef 40) #16
  store double 1.000000e+00, ptr %45, align 8, !tbaa !12
  %46 = getelementptr inbounds nuw i8, ptr %45, i64 8
  call void @llvm.memcpy.p0.p0.i64(ptr noundef nonnull align 8 dereferenceable(32) %46, ptr noundef nonnull align 8 dereferenceable(32) %1, i64 32, i1 false)
  %47 = load ptr, ptr %31, align 8, !tbaa !42
  %48 = tail call ptr @g_list_append(ptr noundef %47, ptr noundef nonnull %45) #14
  store ptr %48, ptr %31, align 8, !tbaa !42
  %49 = tail call i64 @gtk_widget_get_type() #15
  %50 = tail call ptr @g_type_check_instance_cast(ptr noundef nonnull %11, i64 noundef %49) #14
  tail call void @dt_gui_add_class(ptr noundef %50, ptr noundef nonnull @.str) #14
  ret ptr %11
}